	.file	"hello_world.c"
	.intel_syntax noprefix
	.text
	.section	.rodata
.LC0:
	.string	"Hello World!\n"
	.text
	.globl	main
	.type	main, @function
main:
.LFB0:
	.cfi_startproc
	endbr32
	lea	ecx, 4[esp]
	.cfi_def_cfa 1, 0
	and	esp, -16
	push	DWORD PTR -4[ecx]
	push	ebp
	mov	ebp, esp
	.cfi_escape 0x10,0x5,0x2,0x75,0
	push	ebx
	push	ecx
	.cfi_escape 0xf,0x3,0x75,0x78,0x6
	.cfi_escape 0x10,0x3,0x2,0x75,0x7c
	call	__x86.get_pc_thunk.ax
	add	eax, OFFSET FLAT:_GLOBAL_OFFSET_TABLE_
	sub	esp, 4
	push	13
	lea	edx, .LC0@GOTOFF[eax]
	push	edx
	push	1
	mov	ebx, eax
	call	write@PLT
	add	esp, 16
	mov	eax, 0
	lea	esp, -8[ebp]
	pop	ecx
	.cfi_restore 1
	.cfi_def_cfa 1, 0
	pop	ebx
	.cfi_restore 3
	pop	ebp
	.cfi_restore 5
	lea	esp, -4[ecx]
	.cfi_def_cfa 4, 4
	ret
	.cfi_endproc
.LFE0:
	.size	main, .-main
	.section	.text.__x86.get_pc_thunk.ax,"axG",@progbits,__x86.get_pc_thunk.ax,comdat
	.globl	__x86.get_pc_thunk.ax
	.hidden	__x86.get_pc_thunk.ax
	.type	__x86.get_pc_thunk.ax, @function
__x86.get_pc_thunk.ax:
.LFB1:
	.cfi_startproc
	mov	eax, DWORD PTR [esp]
	ret
	.cfi_endproc
.LFE1:
	.ident	"GCC: (Ubuntu 9.4.0-1ubuntu1~20.04.2) 9.4.0"
	.section	.note.GNU-stack,"",@progbits
	.section	.note.gnu.property,"a"
	.align 4
	.long	 1f - 0f
	.long	 4f - 1f
	.long	 5
0:
	.string	 "GNU"
1:
	.align 4
	.long	 0xc0000002
	.long	 3f - 2f
2:
	.long	 0x3
3:
	.align 4
4:
